; Function Attrs: mustprogress uwtable
define <2 x float> @_ZN2cv6detail11PlaneWarper17warpPointBackwardERKNS_6Point_IfEERKNS_11_InputArrayES8_(ptr noundef nonnull align 8 captures(none) dereferenceable(168) %0, ptr noundef nonnull readonly align 4 captures(none) dereferenceable(8) %1, ptr noundef nonnull align 8 dereferenceable(24) %2, ptr noundef nonnull align 8 dereferenceable(24) %3) unnamed_addr #8 align 2 personality ptr @__gxx_personality_v0 {
  %5 = alloca [3 x float], align 4
  %6 = alloca %"class.cv::Mat_", align 8
  %7 = alloca %"class.cv::_InputArray", align 8
  call void @llvm.lifetime.start.p0(i64 12, ptr nonnull %5) #22
  call void @llvm.memset.p0.i64(ptr noundef nonnull align 4 dereferenceable(12) %5, i8 0, i64 12, i1 false)
  call void @llvm.lifetime.start.p0(i64 96, ptr nonnull %6) #22
  call void @_ZN2cv3MatC2EiiiPvm(ptr noundef nonnull align 8 dereferenceable(96) %6, i32 noundef 3, i32 noundef 1, i32 noundef 5, ptr noundef nonnull %5, i64 noundef 0)
  call void @llvm.lifetime.start.p0(i64 24, ptr nonnull %7) #22
  %8 = getelementptr inbounds nuw i8, ptr %7, i64 16
  store i32 0, ptr %8, align 8, !tbaa !203
  %9 = getelementptr inbounds nuw i8, ptr %7, i64 20
  store i32 0, ptr %9, align 4, !tbaa !204
  store i32 -2130640891, ptr %7, align 8, !tbaa !205
  %10 = getelementptr inbounds nuw i8, ptr %7, i64 8
  store ptr %6, ptr %10, align 8, !tbaa !160
  %11 = getelementptr inbounds nuw i8, ptr %0, i64 8
  invoke void @_ZN2cv6detail13ProjectorBase15setCameraParamsERKNS_11_InputArrayES4_S4_(ptr noundef nonnull align 4 dereferenceable(160) %11, ptr noundef nonnull align 8 dereferenceable(24) %2, ptr noundef nonnull align 8 dereferenceable(24) %3, ptr noundef nonnull align 8 dereferenceable(24) %7)
          to label %12 unwind label %58

12:                                               ; preds = %4
  %13 = load float, ptr %1, align 4, !tbaa !198
  %14 = getelementptr inbounds nuw i8, ptr %1, i64 4
  %15 = load float, ptr %14, align 4, !tbaa !200
  %16 = load float, ptr %11, align 8, !tbaa !201
  %17 = fdiv float %13, %16
  %18 = getelementptr inbounds nuw i8, ptr %0, i64 156
  %19 = load float, ptr %18, align 4, !tbaa !180
  %20 = fsub float %17, %19
  %21 = fdiv float %15, %16
  %22 = getelementptr inbounds nuw i8, ptr %0, i64 160
  %23 = load float, ptr %22, align 8, !tbaa !180
  %24 = fsub float %21, %23
  %25 = getelementptr inbounds nuw i8, ptr %0, i64 120
  %26 = load float, ptr %25, align 8, !tbaa !180
  %27 = getelementptr inbounds nuw i8, ptr %0, i64 124
  %28 = load float, ptr %27, align 4, !tbaa !180
  %29 = fmul float %24, %28
  %30 = call float @llvm.fmuladd.f32(float %26, float %20, float %29)
  %31 = getelementptr inbounds nuw i8, ptr %0, i64 128
  %32 = load float, ptr %31, align 8, !tbaa !180
  %33 = getelementptr inbounds nuw i8, ptr %0, i64 164
  %34 = load float, ptr %33, align 4, !tbaa !180
  %35 = fsub float 1.000000e+00, %34
  %36 = call float @llvm.fmuladd.f32(float %32, float %35, float %30)
  %37 = getelementptr inbounds nuw i8, ptr %0, i64 132
  %38 = load float, ptr %37, align 4, !tbaa !180
  %39 = getelementptr inbounds nuw i8, ptr %0, i64 136
  %40 = load float, ptr %39, align 8, !tbaa !180
  %41 = fmul float %24, %40
  %42 = call float @llvm.fmuladd.f32(float %38, float %20, float %41)
  %43 = getelementptr inbounds nuw i8, ptr %0, i64 140
  %44 = load float, ptr %43, align 4, !tbaa !180
  %45 = call float @llvm.fmuladd.f32(float %44, float %35, float %42)
  %46 = getelementptr inbounds nuw i8, ptr %0, i64 144
  %47 = load float, ptr %46, align 8, !tbaa !180
  %48 = getelementptr inbounds nuw i8, ptr %0, i64 148
  %49 = load float, ptr %48, align 4, !tbaa !180
  %50 = fmul float %24, %49
  %51 = call float @llvm.fmuladd.f32(float %47, float %20, float %50)
  %52 = getelementptr inbounds nuw i8, ptr %0, i64 152
  %53 = load float, ptr %52, align 8, !tbaa !180
  %54 = call float @llvm.fmuladd.f32(float %53, float %35, float %51)
  %55 = fdiv float %36, %54
  %56 = insertelement <2 x float> poison, float %55, i64 0
  %57 = fdiv float %45, %54
  %.sroa.0.4.vec.insert14.i = insertelement <2 x float> %56, float %57, i64 1
  call void @llvm.lifetime.end.p0(i64 24, ptr nonnull %7) #22
  call void @_ZN2cv3MatD2Ev(ptr noundef nonnull align 8 dereferenceable(96) %6) #22
  call void @llvm.lifetime.end.p0(i64 96, ptr nonnull %6) #22
  call void @llvm.lifetime.end.p0(i64 12, ptr nonnull %5) #22
  ret <2 x float> %.sroa.0.4.vec.insert14.i

58:                                               ; preds = %4
  %59 = landingpad { ptr, i32 }
          cleanup
  call void @llvm.lifetime.end.p0(i64 24, ptr nonnull %7) #22
  call void @_ZN2cv3MatD2Ev(ptr noundef nonnull align 8 dereferenceable(96) %6) #22
  call void @llvm.lifetime.end.p0(i64 96, ptr nonnull %6) #22
  call void @llvm.lifetime.end.p0(i64 12, ptr nonnull %5) #22
  resume { ptr, i32 } %59
}